target datalayout = "e-m:e-p270:32:32-p271:32:32-p272:64:64-i64:64-i128:128-f80:128-n8:16:32:64-S128"
target triple = "x86_64-unknown-linux-gnu"

@.str.4 = private unnamed_addr constant [26 x i8] c"drivers/gpu/drm/drm_gem.c\00", align 1
@.str.6 = private unnamed_addr constant [29 x i8] c"Failed to look up GEM BO %d\0A\00", align 1

; Function Attrs: fn_ret_thunk_extern nounwind null_pointer_is_valid
define internal fastcc noundef i32 @objects_lookup(ptr noundef %0, ptr nocapture noundef readonly %1, i32 noundef %2, ptr nocapture noundef writeonly %3) unnamed_addr #0 align 16 {
  %5 = getelementptr inbounds i8, ptr %0, i64 104
  tail call void @_raw_spin_lock(ptr noundef %5) #11
  %6 = getelementptr inbounds i8, ptr %0, i64 80
  %7 = icmp sgt i32 %2, 0
  br i1 %7, label %8, label %30

8:                                                ; preds = %4
  %9 = zext nneg i32 %2 to i64
  br label %10

10:                                               ; preds = %26, %8
  %11 = phi i64 [ 0, %8 ], [ %28, %26 ]
  %12 = getelementptr i32, ptr %1, i64 %11
  %13 = load i32, ptr %12, align 4
  %14 = zext i32 %13 to i64
  %15 = tail call ptr @idr_find(ptr noundef %6, i64 noundef %14) #11
  %16 = icmp eq ptr %15, null
  br i1 %16, label %30, label %17

17:                                               ; preds = %10
  %18 = tail call i32 asm sideeffect ".pushsection .smp_locks,\22a\22\0A.balign 4\0A.long 671f - .\0A.popsection\0A671:\0A\09lock; xaddl $0, $1\0A", "=r,=*m,0,*m,~{memory},~{cc},~{dirflag},~{fpsr},~{flags}"(ptr nonnull elementtype(i32) %15, i32 1, ptr nonnull elementtype(i32) %15) #11, !srcloc !22
  %19 = icmp eq i32 %18, 0
  br i1 %19, label %24, label %20, !prof !15

20:                                               ; preds = %17
  %21 = add i32 %18, 1
  %22 = or i32 %21, %18
  %23 = icmp sgt i32 %22, -1
  br i1 %23, label %26, label %24, !prof !6

24:                                               ; preds = %20, %17
  %25 = phi i32 [ 2, %17 ], [ 1, %20 ]
  tail call void @refcount_warn_saturate(ptr noundef nonnull %15, i32 noundef %25) #11
  br label %26

26:                                               ; preds = %24, %20
  %27 = getelementptr ptr, ptr %3, i64 %11
  store ptr %15, ptr %27, align 8
  %28 = add nuw nsw i64 %11, 1
  %29 = icmp eq i64 %28, %9
  br i1 %29, label %30, label %10, !llvm.loop !54

30:                                               ; preds = %26, %10, %4
  %31 = phi i32 [ 0, %4 ], [ 0, %26 ], [ -2, %10 ]
  tail call void @_raw_spin_unlock(ptr noundef %5) #11
  ret i32 %31
}

; Function Attrs: fn_ret_thunk_extern nounwind null_pointer_is_valid
define dso_local i64 @drm_gem_dma_resv_wait(ptr noundef %0, i32 noundef %1, i1 noundef zeroext %2, i64 noundef %3) #0 align 16 {
  %5 = alloca i32, align 4
  %6 = alloca ptr, align 8
  call void @llvm.lifetime.start.p0(i64 4, ptr nonnull %5)
  store i32 %1, ptr %5, align 4
  call void @llvm.lifetime.start.p0(i64 8, ptr nonnull %6) #11
  store ptr null, ptr %6, align 8
  %7 = call fastcc i32 @objects_lookup(ptr noundef %0, ptr noundef nonnull %5, i32 noundef 1, ptr noundef nonnull %6), !range !12
  %8 = load ptr, ptr %6, align 8
  call void @llvm.lifetime.end.p0(i64 8, ptr nonnull %6) #11
  call void @llvm.lifetime.end.p0(i64 4, ptr nonnull %5)
  %9 = icmp eq ptr %8, null
  br i1 %9, label %10, label %11

10:                                               ; preds = %4
  tail call void (ptr, i32, ptr, ...) @___drm_dbg(ptr noundef null, i32 noundef 0, ptr noundef nonnull @.str.6, i32 noundef %1) #11
  br label %33

11:                                               ; preds = %4
  %12 = getelementptr inbounds i8, ptr %8, i64 248
  %13 = load ptr, ptr %12, align 8
  %14 = select i1 %2, i32 2, i32 1
  %15 = tail call i64 @dma_resv_wait_timeout(ptr noundef %13, i32 noundef %14, i1 noundef zeroext true, i64 noundef %3) #11
  %16 = icmp eq i64 %15, 0
  %17 = tail call i64 @llvm.smin.i64(i64 %15, i64 0)
  %18 = select i1 %16, i64 -62, i64 %17
  %19 = tail call i32 asm sideeffect ".pushsection .smp_locks,\22a\22\0A.balign 4\0A.long 671f - .\0A.popsection\0A671:\0A\09lock; xaddl $0, $1\0A", "=r,=*m,0,*m,~{memory},~{cc},~{dirflag},~{fpsr},~{flags}"(ptr nonnull elementtype(i32) %8, i32 -1, ptr nonnull elementtype(i32) %8) #11, !srcloc !13
  %20 = icmp eq i32 %19, 1
  br i1 %20, label %21, label %22

21:                                               ; preds = %11
  tail call void asm sideeffect "", "~{memory},~{dirflag},~{fpsr},~{flags}"() #11, !srcloc !14
  br label %25

22:                                               ; preds = %11
  %23 = icmp sgt i32 %19, 0
  br i1 %23, label %25, label %24, !prof !6

24:                                               ; preds = %22
  tail call void @refcount_warn_saturate(ptr noundef nonnull %8, i32 noundef 3) #11
  br label %25

25:                                               ; preds = %24, %22, %21
  br i1 %20, label %26, label %33

26:                                               ; preds = %25
  %27 = getelementptr inbounds i8, ptr %8, i64 320
  %28 = load ptr, ptr %27, align 8
  %29 = load ptr, ptr %28, align 8
  %30 = icmp eq ptr %29, null
  br i1 %30, label %31, label %32, !prof !15

31:                                               ; preds = %26
  tail call void asm sideeffect "493: nop\0A\09.pushsection .discard.instr_begin\0A\09.long 493b - .\0A\09.popsection\0A\09", "i,~{dirflag},~{fpsr},~{flags}"(i32 493) #11, !srcloc !16
  tail call void asm sideeffect "1:\09.byte 0x0f, 0x0b\0A.pushsection __bug_table,\22aw\22\0A2:\09.long 1b - .\09# bug_entry::bug_addr\0A\09.long ${0:c} - .\09# bug_entry::file\0A\09.word ${1:c}\09# bug_entry::line\0A\09.word ${2:c}\09# bug_entry::flags\0A\09.org 2b+${3:c}\0A.popsection\0A998:\0A\09.pushsection .discard.reachable\0A\09.long 998b\0A\09.popsection\0A\09", "i,i,i,i,~{dirflag},~{fpsr},~{flags}"(ptr nonnull @.str.4, i32 979, i32 2305, i64 12) #11, !srcloc !17
  tail call void asm sideeffect "494: nop\0A\09.pushsection .discard.instr_end\0A\09.long 494b - .\0A\09.popsection\0A\09", "i,~{dirflag},~{fpsr},~{flags}"(i32 494) #11, !srcloc !18
  br label %33

32:                                               ; preds = %26
  tail call void %29(ptr noundef nonnull %8) #11
  br label %33

33:                                               ; preds = %32, %31, %25, %10
  %34 = phi i64 [ -22, %10 ], [ %18, %25 ], [ %18, %31 ], [ %18, %32 ]
  ret i64 %34
}