; Function Attrs: fn_ret_thunk_extern nounwind null_pointer_is_valid
define dso_local i64 @drm_gem_dma_resv_wait(ptr noundef %0, i32 noundef %1, i1 noundef zeroext %2, i64 noundef %3) #0 align 16 {
  %5 = getelementptr inbounds i8, ptr %0, i64 104
  tail call void @_raw_spin_lock(ptr noundef %5) #11
  %6 = getelementptr inbounds i8, ptr %0, i64 80
  %7 = zext i32 %1 to i64
  %8 = tail call ptr @idr_find(ptr noundef %6, i64 noundef %7) #11
  %9 = icmp eq ptr %8, null
  br i1 %9, label %18, label %.lr.ph.preheader

.lr.ph.preheader:                                 ; preds = %4
  %10 = tail call i32 asm sideeffect ".pushsection .smp_locks,\22a\22\0A.balign 4\0A.long 671f - .\0A.popsection\0A671:\0A\09lock; xaddl $0, $1\0A", "=r,=*m,0,*m,~{memory},~{cc},~{dirflag},~{fpsr},~{flags}"(ptr nonnull elementtype(i32) %8, i32 1, ptr nonnull elementtype(i32) %8) #11, !srcloc !12
  %11 = icmp eq i32 %10, 0
  br i1 %11, label %16, label %12, !prof !13

12:                                               ; preds = %.lr.ph.preheader
  %13 = add i32 %10, 1
  %14 = or i32 %13, %10
  %15 = icmp sgt i32 %14, -1
  br i1 %15, label %19, label %16, !prof !6

16:                                               ; preds = %12, %.lr.ph.preheader
  %17 = phi i32 [ 2, %.lr.ph.preheader ], [ 1, %12 ]
  tail call void @refcount_warn_saturate(ptr noundef nonnull %8, i32 noundef %17) #11
  br label %19

18:                                               ; preds = %4
  tail call void @_raw_spin_unlock(ptr noundef %5) #11
  tail call void (ptr, i32, ptr, ...) @___drm_dbg(ptr noundef null, i32 noundef 0, ptr noundef nonnull @.str.6, i32 noundef %1) #11
  br label %.thread

19:                                               ; preds = %12, %16
  tail call void @_raw_spin_unlock(ptr noundef %5) #11
  %20 = getelementptr inbounds i8, ptr %8, i64 248
  %21 = load ptr, ptr %20, align 8
  %22 = select i1 %2, i32 2, i32 1
  %23 = tail call i64 @dma_resv_wait_timeout(ptr noundef %21, i32 noundef %22, i1 noundef zeroext true, i64 noundef %3) #11
  %24 = icmp eq i64 %23, 0
  %25 = tail call i64 @llvm.smin.i64(i64 %23, i64 0)
  %26 = select i1 %24, i64 -62, i64 %25
  %27 = tail call i32 asm sideeffect ".pushsection .smp_locks,\22a\22\0A.balign 4\0A.long 671f - .\0A.popsection\0A671:\0A\09lock; xaddl $0, $1\0A", "=r,=*m,0,*m,~{memory},~{cc},~{dirflag},~{fpsr},~{flags}"(ptr nonnull elementtype(i32) %8, i32 -1, ptr nonnull elementtype(i32) %8) #11, !srcloc !14
  %28 = icmp eq i32 %27, 1
  br i1 %28, label %32, label %29

29:                                               ; preds = %19
  %30 = icmp sgt i32 %27, 0
  br i1 %30, label %.thread, label %31, !prof !6

31:                                               ; preds = %29
  tail call void @refcount_warn_saturate(ptr noundef nonnull %8, i32 noundef 3) #11
  br label %.thread

32:                                               ; preds = %19
  tail call void asm sideeffect "", "~{memory},~{dirflag},~{fpsr},~{flags}"() #11, !srcloc !15
  %33 = getelementptr inbounds i8, ptr %8, i64 320
  %34 = load ptr, ptr %33, align 8
  %35 = load ptr, ptr %34, align 8
  %36 = icmp eq ptr %35, null
  br i1 %36, label %37, label %38, !prof !13

37:                                               ; preds = %32
  tail call void asm sideeffect "493: nop\0A\09.pushsection .discard.instr_begin\0A\09.long 493b - .\0A\09.popsection\0A\09", "i,~{dirflag},~{fpsr},~{flags}"(i32 493) #11, !srcloc !16
  tail call void asm sideeffect "1:\09.byte 0x0f, 0x0b\0A.pushsection __bug_table,\22aw\22\0A2:\09.long 1b - .\09# bug_entry::bug_addr\0A\09.long ${0:c} - .\09# bug_entry::file\0A\09.word ${1:c}\09# bug_entry::line\0A\09.word ${2:c}\09# bug_entry::flags\0A\09.org 2b+${3:c}\0A.popsection\0A998:\0A\09.pushsection .discard.reachable\0A\09.long 998b\0A\09.popsection\0A\09", "i,i,i,i,~{dirflag},~{fpsr},~{flags}"(ptr nonnull @.str.4, i32 979, i32 2305, i64 12) #11, !srcloc !17
  tail call void asm sideeffect "494: nop\0A\09.pushsection .discard.instr_end\0A\09.long 494b - .\0A\09.popsection\0A\09", "i,~{dirflag},~{fpsr},~{flags}"(i32 494) #11, !srcloc !18
  br label %.thread

38:                                               ; preds = %32
  tail call void %35(ptr noundef nonnull %8) #11
  br label %.thread

.thread:                                          ; preds = %29, %31, %38, %37, %18
  %39 = phi i64 [ -22, %18 ], [ %26, %37 ], [ %26, %38 ], [ %26, %31 ], [ %26, %29 ]
  ret i64 %39
}